target datalayout = "e-m:e-p270:32:32-p271:32:32-p272:64:64-i64:64-i128:128-f80:128-n8:16:32:64-S128"
target triple = "x86_64-pc-linux-gnu"

%"class.cvc5::internal::Sequence" = type { %"class.std::unique_ptr", %"class.std::vector" }
%"class.std::unique_ptr" = type { %"struct.std::__uniq_ptr_data" }
%"struct.std::__uniq_ptr_data" = type { %"class.std::__uniq_ptr_impl" }
%"class.std::__uniq_ptr_impl" = type { %"class.std::tuple" }
%"class.std::tuple" = type { %"struct.std::_Tuple_impl" }
%"struct.std::_Tuple_impl" = type { %"struct.std::_Head_base.1" }
%"struct.std::_Head_base.1" = type { ptr }
%"class.std::vector" = type { %"struct.std::_Vector_base" }
%"struct.std::_Vector_base" = type { %"struct.std::_Vector_base<cvc5::internal::NodeTemplate<true>, std::allocator<cvc5::internal::NodeTemplate<true>>>::_Vector_impl" }
%"struct.std::_Vector_base<cvc5::internal::NodeTemplate<true>, std::allocator<cvc5::internal::NodeTemplate<true>>>::_Vector_impl" = type { %"struct.std::_Vector_base<cvc5::internal::NodeTemplate<true>, std::allocator<cvc5::internal::NodeTemplate<true>>>::_Vector_impl_data" }
%"struct.std::_Vector_base<cvc5::internal::NodeTemplate<true>, std::allocator<cvc5::internal::NodeTemplate<true>>>::_Vector_impl_data" = type { ptr, ptr, ptr }
%"class.__gnu_cxx::__normal_iterator.2" = type { ptr }
%"class.cvc5::internal::NodeTemplate" = type { ptr }
%"struct.std::hash" = type { i8 }

; Function Attrs: mustprogress nounwind uwtable
define linkonce_odr hidden noundef nonnull align 8 dereferenceable(8) ptr @_ZNK9__gnu_cxx17__normal_iteratorIPKN4cvc58internal12NodeTemplateILb1EEESt6vectorIS4_SaIS4_EEE4baseEv(ptr noundef nonnull align 8 dereferenceable(8) %0) #8 comdat align 2 {
  %2 = alloca ptr, align 8
  store ptr %0, ptr %2, align 8, !tbaa !32
  %3 = load ptr, ptr %2, align 8
  %4 = getelementptr inbounds nuw %"class.__gnu_cxx::__normal_iterator.2", ptr %3, i32 0, i32 0
  ret ptr %4
}

; Function Attrs: mustprogress nounwind uwtable
define linkonce_odr hidden void @_ZN9__gnu_cxx17__normal_iteratorIPKN4cvc58internal12NodeTemplateILb1EEESt6vectorIS4_SaIS4_EEEC2ERKS6_(ptr noundef nonnull align 8 dereferenceable(8) %0, ptr noundef nonnull align 8 dereferenceable(8) %1) unnamed_addr #8 comdat align 2 {
  %3 = alloca ptr, align 8
  %4 = alloca ptr, align 8
  store ptr %0, ptr %3, align 8, !tbaa !32
  store ptr %1, ptr %4, align 8, !tbaa !70
  %5 = load ptr, ptr %3, align 8
  %6 = getelementptr inbounds nuw %"class.__gnu_cxx::__normal_iterator.2", ptr %5, i32 0, i32 0
  %7 = load ptr, ptr %4, align 8, !tbaa !70
  %8 = load ptr, ptr %7, align 8, !tbaa !25
  store ptr %8, ptr %6, align 8, !tbaa !36
  ret void
}

; Function Attrs: mustprogress nounwind uwtable
define linkonce_odr hidden noundef nonnull align 8 dereferenceable(8) ptr @_ZN9__gnu_cxx17__normal_iteratorIPKN4cvc58internal12NodeTemplateILb1EEESt6vectorIS4_SaIS4_EEEppEv(ptr noundef nonnull align 8 dereferenceable(8) %0) #8 comdat align 2 {
  %2 = alloca ptr, align 8
  store ptr %0, ptr %2, align 8, !tbaa !32
  %3 = load ptr, ptr %2, align 8
  %4 = getelementptr inbounds nuw %"class.__gnu_cxx::__normal_iterator.2", ptr %3, i32 0, i32 0
  %5 = load ptr, ptr %4, align 8, !tbaa !36
  %6 = getelementptr inbounds nuw %"class.cvc5::internal::NodeTemplate", ptr %5, i32 1
  store ptr %6, ptr %4, align 8, !tbaa !36
  ret ptr %3
}

; Function Attrs: inlinehint mustprogress nounwind uwtable
define linkonce_odr hidden noundef i64 @_ZN4cvc58internal5fnv1a8fnv1a_64Emm(i64 noundef %0, i64 noundef %1) #9 comdat {
  %3 = alloca i64, align 8
  %4 = alloca i64, align 8
  store i64 %0, ptr %3, align 8, !tbaa !23
  store i64 %1, ptr %4, align 8, !tbaa !23
  %5 = load i64, ptr %3, align 8, !tbaa !23
  %6 = load i64, ptr %4, align 8, !tbaa !23
  %7 = xor i64 %6, %5
  store i64 %7, ptr %4, align 8, !tbaa !23
  %8 = load i64, ptr %4, align 8, !tbaa !23
  %9 = load i64, ptr %4, align 8, !tbaa !23
  %10 = shl i64 %9, 1
  %11 = add i64 %8, %10
  %12 = load i64, ptr %4, align 8, !tbaa !23
  %13 = shl i64 %12, 4
  %14 = add i64 %11, %13
  %15 = load i64, ptr %4, align 8, !tbaa !23
  %16 = shl i64 %15, 5
  %17 = add i64 %14, %16
  %18 = load i64, ptr %4, align 8, !tbaa !23
  %19 = shl i64 %18, 7
  %20 = add i64 %17, %19
  %21 = load i64, ptr %4, align 8, !tbaa !23
  %22 = shl i64 %21, 8
  %23 = add i64 %20, %22
  %24 = load i64, ptr %4, align 8, !tbaa !23
  %25 = shl i64 %24, 40
  %26 = add i64 %23, %25
  ret i64 %26
}

; Function Attrs: mustprogress nounwind uwtable
define linkonce_odr hidden noundef nonnull align 8 dereferenceable(8) ptr @_ZNK9__gnu_cxx17__normal_iteratorIPKN4cvc58internal12NodeTemplateILb1EEESt6vectorIS4_SaIS4_EEEdeEv(ptr noundef nonnull align 8 dereferenceable(8) %0) #8 comdat align 2 {
  %2 = alloca ptr, align 8
  store ptr %0, ptr %2, align 8, !tbaa !32
  %3 = load ptr, ptr %2, align 8
  %4 = getelementptr inbounds nuw %"class.__gnu_cxx::__normal_iterator.2", ptr %3, i32 0, i32 0
  %5 = load ptr, ptr %4, align 8, !tbaa !36
  ret ptr %5
}

; Function Attrs: inlinehint mustprogress nounwind uwtable
define linkonce_odr hidden noundef zeroext i1 @_ZN9__gnu_cxxneIPKN4cvc58internal12NodeTemplateILb1EEESt6vectorIS4_SaIS4_EEEEbRKNS_17__normal_iteratorIT_T0_EESF_(ptr noundef nonnull align 8 dereferenceable(8) %0, ptr noundef nonnull align 8 dereferenceable(8) %1) #9 comdat {
  %3 = alloca ptr, align 8
  %4 = alloca ptr, align 8
  store ptr %0, ptr %3, align 8, !tbaa !32
  store ptr %1, ptr %4, align 8, !tbaa !32
  %5 = load ptr, ptr %3, align 8, !tbaa !32
  %6 = call noundef nonnull align 8 dereferenceable(8) ptr @_ZNK9__gnu_cxx17__normal_iteratorIPKN4cvc58internal12NodeTemplateILb1EEESt6vectorIS4_SaIS4_EEE4baseEv(ptr noundef nonnull align 8 dereferenceable(8) %5) #3
  %7 = load ptr, ptr %6, align 8, !tbaa !25
  %8 = load ptr, ptr %4, align 8, !tbaa !32
  %9 = call noundef nonnull align 8 dereferenceable(8) ptr @_ZNK9__gnu_cxx17__normal_iteratorIPKN4cvc58internal12NodeTemplateILb1EEESt6vectorIS4_SaIS4_EEE4baseEv(ptr noundef nonnull align 8 dereferenceable(8) %8) #3
  %10 = load ptr, ptr %9, align 8, !tbaa !25
  %11 = icmp ne ptr %7, %10
  ret i1 %11
}

; Function Attrs: mustprogress nounwind uwtable
define linkonce_odr hidden ptr @_ZNKSt6vectorIN4cvc58internal12NodeTemplateILb1EEESaIS3_EE3endEv(ptr noundef nonnull align 8 dereferenceable(24) %0) #8 comdat align 2 {
  %2 = alloca %"class.__gnu_cxx::__normal_iterator.2", align 8
  %3 = alloca ptr, align 8
  store ptr %0, ptr %3, align 8, !tbaa !10
  %4 = load ptr, ptr %3, align 8
  %5 = getelementptr inbounds nuw %"struct.std::_Vector_base", ptr %4, i32 0, i32 0
  %6 = getelementptr inbounds nuw %"struct.std::_Vector_base<cvc5::internal::NodeTemplate<true>, std::allocator<cvc5::internal::NodeTemplate<true>>>::_Vector_impl_data", ptr %5, i32 0, i32 1
  call void @_ZN9__gnu_cxx17__normal_iteratorIPKN4cvc58internal12NodeTemplateILb1EEESt6vectorIS4_SaIS4_EEEC2ERKS6_(ptr noundef nonnull align 8 dereferenceable(8) %2, ptr noundef nonnull align 8 dereferenceable(8) %6) #3
  %7 = getelementptr inbounds nuw %"class.__gnu_cxx::__normal_iterator.2", ptr %2, i32 0, i32 0
  %8 = load ptr, ptr %7, align 8
  ret ptr %8
}

; Function Attrs: mustprogress nounwind uwtable
define linkonce_odr hidden ptr @_ZNKSt6vectorIN4cvc58internal12NodeTemplateILb1EEESaIS3_EE5beginEv(ptr noundef nonnull align 8 dereferenceable(24) %0) #8 comdat align 2 {
  %2 = alloca %"class.__gnu_cxx::__normal_iterator.2", align 8
  %3 = alloca ptr, align 8
  store ptr %0, ptr %3, align 8, !tbaa !10
  %4 = load ptr, ptr %3, align 8
  %5 = getelementptr inbounds nuw %"struct.std::_Vector_base", ptr %4, i32 0, i32 0
  %6 = getelementptr inbounds nuw %"struct.std::_Vector_base<cvc5::internal::NodeTemplate<true>, std::allocator<cvc5::internal::NodeTemplate<true>>>::_Vector_impl_data", ptr %5, i32 0, i32 0
  call void @_ZN9__gnu_cxx17__normal_iteratorIPKN4cvc58internal12NodeTemplateILb1EEESt6vectorIS4_SaIS4_EEEC2ERKS6_(ptr noundef nonnull align 8 dereferenceable(8) %2, ptr noundef nonnull align 8 dereferenceable(8) %6) #3
  %7 = getelementptr inbounds nuw %"class.__gnu_cxx::__normal_iterator.2", ptr %2, i32 0, i32 0
  %8 = load ptr, ptr %7, align 8
  ret ptr %8
}

; Function Attrs: mustprogress nounwind uwtable
define hidden noundef nonnull align 8 dereferenceable(24) ptr @_ZNK4cvc58internal8Sequence6getVecEv(ptr noundef nonnull align 8 dereferenceable(32) %0) #8 align 2 {
  %2 = alloca ptr, align 8
  store ptr %0, ptr %2, align 8, !tbaa !3
  %3 = load ptr, ptr %2, align 8
  %4 = getelementptr inbounds nuw %"class.cvc5::internal::Sequence", ptr %3, i32 0, i32 1
  ret ptr %4
}

; Function Attrs: mustprogress uwtable
define hidden noundef i64 @_ZNK4cvc58internal20SequenceHashFunctionclERKNS0_8SequenceE(ptr noundef nonnull align 1 dereferenceable(1) %0, ptr noundef nonnull align 8 dereferenceable(32) %1) #4 align 2 {
  %3 = alloca ptr, align 8
  %4 = alloca ptr, align 8
  %5 = alloca i64, align 8
  %6 = alloca ptr, align 8
  %7 = alloca ptr, align 8
  %8 = alloca %"class.__gnu_cxx::__normal_iterator.2", align 8
  %9 = alloca %"class.__gnu_cxx::__normal_iterator.2", align 8
  %10 = alloca ptr, align 8
  %11 = alloca %"struct.std::hash", align 1
  store ptr %0, ptr %3, align 8, !tbaa !67
  store ptr %1, ptr %4, align 8, !tbaa !3
  call void @llvm.lifetime.start.p0(i64 8, ptr %5) #3
  store i64 -3750763034362895579, ptr %5, align 8, !tbaa !23
  call void @llvm.lifetime.start.p0(i64 8, ptr %6) #3
  %12 = load ptr, ptr %4, align 8, !tbaa !3
  %13 = call noundef nonnull align 8 dereferenceable(24) ptr @_ZNK4cvc58internal8Sequence6getVecEv(ptr noundef nonnull align 8 dereferenceable(32) %12)
  store ptr %13, ptr %6, align 8, !tbaa !10
  call void @llvm.lifetime.start.p0(i64 8, ptr %7) #3
  %14 = load ptr, ptr %6, align 8, !tbaa !10
  store ptr %14, ptr %7, align 8, !tbaa !10
  call void @llvm.lifetime.start.p0(i64 8, ptr %8) #3
  %15 = load ptr, ptr %7, align 8, !tbaa !10
  %16 = call ptr @_ZNKSt6vectorIN4cvc58internal12NodeTemplateILb1EEESaIS3_EE5beginEv(ptr noundef nonnull align 8 dereferenceable(24) %15) #3
  %17 = getelementptr inbounds nuw %"class.__gnu_cxx::__normal_iterator.2", ptr %8, i32 0, i32 0
  store ptr %16, ptr %17, align 8
  call void @llvm.lifetime.start.p0(i64 8, ptr %9) #3
  %18 = load ptr, ptr %7, align 8, !tbaa !10
  %19 = call ptr @_ZNKSt6vectorIN4cvc58internal12NodeTemplateILb1EEESaIS3_EE3endEv(ptr noundef nonnull align 8 dereferenceable(24) %18) #3
  %20 = getelementptr inbounds nuw %"class.__gnu_cxx::__normal_iterator.2", ptr %9, i32 0, i32 0
  store ptr %19, ptr %20, align 8
  br label %21

21:                                               ; preds = %30, %2
  %22 = call noundef zeroext i1 @_ZN9__gnu_cxxneIPKN4cvc58internal12NodeTemplateILb1EEESt6vectorIS4_SaIS4_EEEEbRKNS_17__normal_iteratorIT_T0_EESF_(ptr noundef nonnull align 8 dereferenceable(8) %8, ptr noundef nonnull align 8 dereferenceable(8) %9) #3
  br i1 %22, label %24, label %23

23:                                               ; preds = %21
  call void @llvm.lifetime.end.p0(i64 8, ptr %9) #3
  call void @llvm.lifetime.end.p0(i64 8, ptr %8) #3
  call void @llvm.lifetime.end.p0(i64 8, ptr %7) #3
  br label %32

24:                                               ; preds = %21
  call void @llvm.lifetime.start.p0(i64 8, ptr %10) #3
  %25 = call noundef nonnull align 8 dereferenceable(8) ptr @_ZNK9__gnu_cxx17__normal_iteratorIPKN4cvc58internal12NodeTemplateILb1EEESt6vectorIS4_SaIS4_EEEdeEv(ptr noundef nonnull align 8 dereferenceable(8) %8) #3
  store ptr %25, ptr %10, align 8, !tbaa !25
  %26 = load i64, ptr %5, align 8, !tbaa !23
  call void @llvm.lifetime.start.p0(i64 1, ptr %11) #3
  %27 = load ptr, ptr %10, align 8, !tbaa !25
  %28 = call noundef i64 @_ZNKSt4hashIN4cvc58internal12NodeTemplateILb1EEEEclERKS3_(ptr noundef nonnull align 1 dereferenceable(1) %11, ptr noundef nonnull align 8 dereferenceable(8) %27)
  %29 = call noundef i64 @_ZN4cvc58internal5fnv1a8fnv1a_64Emm(i64 noundef %26, i64 noundef %28)
  store i64 %29, ptr %5, align 8, !tbaa !23
  call void @llvm.lifetime.end.p0(i64 1, ptr %11) #3
  call void @llvm.lifetime.end.p0(i64 8, ptr %10) #3
  br label %30

30:                                               ; preds = %24
  %31 = call noundef nonnull align 8 dereferenceable(8) ptr @_ZN9__gnu_cxx17__normal_iteratorIPKN4cvc58internal12NodeTemplateILb1EEESt6vectorIS4_SaIS4_EEEppEv(ptr noundef nonnull align 8 dereferenceable(8) %8) #3
  br label %21

32:                                               ; preds = %23
  %33 = load i64, ptr %5, align 8, !tbaa !23
  call void @llvm.lifetime.end.p0(i64 8, ptr %6) #3
  call void @llvm.lifetime.end.p0(i64 8, ptr %5) #3
  ret i64 %33
}