; Function Attrs: mustprogress uwtable
define hidden noundef i64 @_ZNK4cvc58internal20SequenceHashFunctionclERKNS0_8SequenceE(ptr noundef nonnull readnone align 1 captures(none) dereferenceable(1) %0, ptr noundef nonnull readonly align 8 captures(none) dereferenceable(32) %1) local_unnamed_addr #3 align 2 {
  %3 = alloca %"struct.std::hash", align 1
  %4 = getelementptr inbounds nuw i8, ptr %1, i64 8
  %5 = load ptr, ptr %4, align 8, !tbaa !18
  %6 = getelementptr inbounds nuw i8, ptr %1, i64 16
  %7 = load ptr, ptr %6, align 8, !tbaa !18
  %.not9 = icmp eq ptr %5, %7
  br i1 %.not9, label %._crit_edge, label %.lr.ph

._crit_edge:                                      ; preds = %.lr.ph, %2
  %.0.lcssa = phi i64 [ -3750763034362895579, %2 ], [ %10, %.lr.ph ]
  ret i64 %.0.lcssa

.lr.ph:                                           ; preds = %2, %.lr.ph
  %.011 = phi i64 [ %10, %.lr.ph ], [ -3750763034362895579, %2 ]
  %.sroa.06.010 = phi ptr [ %11, %.lr.ph ], [ %5, %2 ]
  call void @llvm.lifetime.start.p0(i64 1, ptr nonnull %3) #23
  %8 = call noundef i64 @_ZNKSt4hashIN4cvc58internal12NodeTemplateILb1EEEEclERKS3_(ptr noundef nonnull align 1 dereferenceable(1) %3, ptr noundef nonnull align 8 dereferenceable(8) %.sroa.06.010)
  %9 = xor i64 %8, %.011
  %10 = mul i64 %9, 1099511628211
  call void @llvm.lifetime.end.p0(i64 1, ptr nonnull %3) #23
  %11 = getelementptr inbounds nuw i8, ptr %.sroa.06.010, i64 8
  %.not = icmp eq ptr %11, %7
  br i1 %.not, label %._crit_edge, label %.lr.ph
}